target datalayout = "e-m:e-p270:32:32-p271:32:32-p272:64:64-i64:64-i128:128-f80:128-n8:16:32:64-S128"
target triple = "x86_64-pc-linux-gnu"

; Function Attrs: mustprogress uwtable
define dso_local void @_ZN12DFSOutputMgr12OutputHeaderEiPPcm(ptr noundef nonnull align 8 dereferenceable(40) %0, i32 noundef %1, ptr noundef %2, i64 noundef %3) unnamed_addr #4 align 2 {
  %5 = alloca ptr, align 8
  %6 = alloca i32, align 4
  %7 = alloca ptr, align 8
  %8 = alloca i64, align 8
  store ptr %0, ptr %5, align 8, !tbaa !4
  store i32 %1, ptr %6, align 4, !tbaa !15
  store ptr %2, ptr %7, align 8, !tbaa !17
  store i64 %3, ptr %8, align 8, !tbaa !19
  %9 = load ptr, ptr %5, align 8
  %10 = call noundef zeroext i1 @_ZN9CGOptions14compact_outputEv()
  br i1 %10, label %15, label %11

11:                                               ; preds = %4
  %12 = load i32, ptr %6, align 4, !tbaa !15
  %13 = load ptr, ptr %7, align 8, !tbaa !17
  %14 = load i64, ptr %8, align 8, !tbaa !19
  call void @_ZN9OutputMgr12OutputHeaderEiPPcm(ptr noundef nonnull align 8 dereferenceable(8) %9, i32 noundef %12, ptr noundef %13, i64 noundef %14)
  br label %15

15:                                               ; preds = %11, %4
  ret void
}