; Function Attrs: mustprogress uwtable
define dso_local void @_ZN12DFSOutputMgr12OutputHeaderEiPPcm(ptr noundef nonnull align 8 dereferenceable(40) %0, i32 noundef %1, ptr noundef %2, i64 noundef %3) unnamed_addr #3 align 2 {
  %5 = tail call noundef zeroext i1 @_ZN9CGOptions14compact_outputEv()
  br i1 %5, label %7, label %6

6:                                                ; preds = %4
  tail call void @_ZN9OutputMgr12OutputHeaderEiPPcm(ptr noundef nonnull align 8 dereferenceable(8) %0, i32 noundef %1, ptr noundef %2, i64 noundef %3)
  br label %7

7:                                                ; preds = %6, %4
  ret void
}